; Function Attrs: mustprogress uwtable
define noundef i32 @_ZNK6casadi8LinsolQr5solveEPvPKdPdxb(ptr noundef nonnull align 8 dereferenceable(272) %0, ptr nocapture noundef readonly %1, ptr nocapture readnone %2, ptr noundef %3, i64 noundef %4, i1 noundef zeroext %5) unnamed_addr #4 align 2 {
  %7 = zext i1 %5 to i64
  %8 = getelementptr inbounds i8, ptr %0, i64 232
  %9 = tail call noundef ptr @_ZNK6casadi8SparsitycvPKxEv(ptr noundef nonnull align 8 dereferenceable(8) %8)
  %10 = getelementptr inbounds i8, ptr %1, i64 64
  %11 = load ptr, ptr %10, align 8
  %12 = getelementptr inbounds i8, ptr %1, i64 72
  %13 = load ptr, ptr %12, align 8
  %14 = icmp eq ptr %11, %13
  %spec.select.i = select i1 %14, ptr null, ptr %11
  %15 = getelementptr inbounds i8, ptr %0, i64 240
  %16 = tail call noundef ptr @_ZNK6casadi8SparsitycvPKxEv(ptr noundef nonnull align 8 dereferenceable(8) %15)
  %17 = getelementptr inbounds i8, ptr %1, i64 88
  %18 = load ptr, ptr %17, align 8
  %19 = getelementptr inbounds i8, ptr %1, i64 96
  %20 = load ptr, ptr %19, align 8
  %21 = icmp eq ptr %18, %20
  %spec.select.i8 = select i1 %21, ptr null, ptr %18
  %22 = getelementptr inbounds i8, ptr %1, i64 112
  %23 = load ptr, ptr %22, align 8
  %24 = getelementptr inbounds i8, ptr %1, i64 120
  %25 = load ptr, ptr %24, align 8
  %26 = icmp eq ptr %23, %25
  %spec.select.i9 = select i1 %26, ptr null, ptr %23
  %27 = getelementptr inbounds i8, ptr %0, i64 184
  %28 = load ptr, ptr %27, align 8
  %29 = getelementptr inbounds i8, ptr %0, i64 192
  %30 = load ptr, ptr %29, align 8
  %31 = icmp eq ptr %28, %30
  %spec.select.i10 = select i1 %31, ptr null, ptr %28
  %32 = getelementptr inbounds i8, ptr %0, i64 208
  %33 = load ptr, ptr %32, align 8
  %34 = getelementptr inbounds i8, ptr %0, i64 216
  %35 = load ptr, ptr %34, align 8
  %36 = icmp eq ptr %33, %35
  %spec.select.i11 = select i1 %36, ptr null, ptr %33
  %37 = getelementptr inbounds i8, ptr %1, i64 136
  %38 = load ptr, ptr %37, align 8
  %39 = getelementptr inbounds i8, ptr %1, i64 144
  %40 = load ptr, ptr %39, align 8
  %41 = icmp eq ptr %38, %40
  %spec.select.i12 = select i1 %41, ptr null, ptr %38
  tail call void @_ZN6casadi15casadi_qr_solveIdEEvPT_xxPKxPKS1_S4_S6_S6_S4_S4_S2_(ptr noundef %3, i64 noundef %4, i64 noundef %7, ptr noundef %9, ptr noundef %spec.select.i, ptr noundef %16, ptr noundef %spec.select.i8, ptr noundef %spec.select.i9, ptr noundef %spec.select.i10, ptr noundef %spec.select.i11, ptr noundef %spec.select.i12)
  ret i32 0
}